target datalayout = "e-m:e-p270:32:32-p271:32:32-p272:64:64-i64:64-i128:128-f80:128-n8:16:32:64-S128"
target triple = "x86_64-pc-linux-gnu"

%struct.lzma_index_hash_s = type { i32, %struct.lzma_index_hash_info, %struct.lzma_index_hash_info, i64, i64, i64, i64, i32 }
%struct.lzma_index_hash_info = type { i64, i64, i64, i64, %struct.lzma_check_state }
%struct.lzma_check_state = type { %union.anon, %union.anon.0 }
%union.anon = type { [8 x i64] }
%union.anon.0 = type { %struct.lzma_sha256_state }
%struct.lzma_sha256_state = type { [8 x i32], i64 }

; Function Attrs: nounwind uwtable
define dso_local ptr @lzma_index_hash_init(ptr noundef %0, ptr noundef %1) #0 {
  %3 = alloca ptr, align 8
  %4 = alloca ptr, align 8
  %5 = alloca ptr, align 8
  store ptr %0, ptr %4, align 8
  store ptr %1, ptr %5, align 8
  %6 = load ptr, ptr %4, align 8
  %7 = icmp eq ptr %6, null
  br i1 %7, label %8, label %15

8:                                                ; preds = %2
  %9 = load ptr, ptr %5, align 8
  %10 = call noalias ptr @lzma_alloc(i64 noundef 320, ptr noundef %9)
  store ptr %10, ptr %4, align 8
  %11 = load ptr, ptr %4, align 8
  %12 = icmp eq ptr %11, null
  br i1 %12, label %13, label %14

13:                                               ; preds = %8
  store ptr null, ptr %3, align 8
  br label %57

14:                                               ; preds = %8
  br label %15

15:                                               ; preds = %14, %2
  %16 = load ptr, ptr %4, align 8
  %17 = getelementptr inbounds %struct.lzma_index_hash_s, ptr %16, i32 0, i32 0
  store i32 0, ptr %17, align 8
  %18 = load ptr, ptr %4, align 8
  %19 = getelementptr inbounds %struct.lzma_index_hash_s, ptr %18, i32 0, i32 1
  %20 = getelementptr inbounds %struct.lzma_index_hash_info, ptr %19, i32 0, i32 0
  store i64 0, ptr %20, align 8
  %21 = load ptr, ptr %4, align 8
  %22 = getelementptr inbounds %struct.lzma_index_hash_s, ptr %21, i32 0, i32 1
  %23 = getelementptr inbounds %struct.lzma_index_hash_info, ptr %22, i32 0, i32 1
  store i64 0, ptr %23, align 8
  %24 = load ptr, ptr %4, align 8
  %25 = getelementptr inbounds %struct.lzma_index_hash_s, ptr %24, i32 0, i32 1
  %26 = getelementptr inbounds %struct.lzma_index_hash_info, ptr %25, i32 0, i32 2
  store i64 0, ptr %26, align 8
  %27 = load ptr, ptr %4, align 8
  %28 = getelementptr inbounds %struct.lzma_index_hash_s, ptr %27, i32 0, i32 1
  %29 = getelementptr inbounds %struct.lzma_index_hash_info, ptr %28, i32 0, i32 3
  store i64 0, ptr %29, align 8
  %30 = load ptr, ptr %4, align 8
  %31 = getelementptr inbounds %struct.lzma_index_hash_s, ptr %30, i32 0, i32 2
  %32 = getelementptr inbounds %struct.lzma_index_hash_info, ptr %31, i32 0, i32 0
  store i64 0, ptr %32, align 8
  %33 = load ptr, ptr %4, align 8
  %34 = getelementptr inbounds %struct.lzma_index_hash_s, ptr %33, i32 0, i32 2
  %35 = getelementptr inbounds %struct.lzma_index_hash_info, ptr %34, i32 0, i32 1
  store i64 0, ptr %35, align 8
  %36 = load ptr, ptr %4, align 8
  %37 = getelementptr inbounds %struct.lzma_index_hash_s, ptr %36, i32 0, i32 2
  %38 = getelementptr inbounds %struct.lzma_index_hash_info, ptr %37, i32 0, i32 2
  store i64 0, ptr %38, align 8
  %39 = load ptr, ptr %4, align 8
  %40 = getelementptr inbounds %struct.lzma_index_hash_s, ptr %39, i32 0, i32 2
  %41 = getelementptr inbounds %struct.lzma_index_hash_info, ptr %40, i32 0, i32 3
  store i64 0, ptr %41, align 8
  %42 = load ptr, ptr %4, align 8
  %43 = getelementptr inbounds %struct.lzma_index_hash_s, ptr %42, i32 0, i32 4
  store i64 0, ptr %43, align 8
  %44 = load ptr, ptr %4, align 8
  %45 = getelementptr inbounds %struct.lzma_index_hash_s, ptr %44, i32 0, i32 5
  store i64 0, ptr %45, align 8
  %46 = load ptr, ptr %4, align 8
  %47 = getelementptr inbounds %struct.lzma_index_hash_s, ptr %46, i32 0, i32 6
  store i64 0, ptr %47, align 8
  %48 = load ptr, ptr %4, align 8
  %49 = getelementptr inbounds %struct.lzma_index_hash_s, ptr %48, i32 0, i32 7
  store i32 0, ptr %49, align 8
  %50 = load ptr, ptr %4, align 8
  %51 = getelementptr inbounds %struct.lzma_index_hash_s, ptr %50, i32 0, i32 1
  %52 = getelementptr inbounds %struct.lzma_index_hash_info, ptr %51, i32 0, i32 4
  call void @lzma_check_init(ptr noundef %52, i32 noundef 10)
  %53 = load ptr, ptr %4, align 8
  %54 = getelementptr inbounds %struct.lzma_index_hash_s, ptr %53, i32 0, i32 2
  %55 = getelementptr inbounds %struct.lzma_index_hash_info, ptr %54, i32 0, i32 4
  call void @lzma_check_init(ptr noundef %55, i32 noundef 10)
  %56 = load ptr, ptr %4, align 8
  store ptr %56, ptr %3, align 8
  br label %57

57:                                               ; preds = %15, %13
  %58 = load ptr, ptr %3, align 8
  ret ptr %58
}