; Function Attrs: nounwind uwtable
define dso_local noundef ptr @lzma_index_hash_init(ptr noundef %0, ptr noundef %1) local_unnamed_addr #0 {
  %3 = icmp eq ptr %0, null
  br i1 %3, label %4, label %7

4:                                                ; preds = %2
  %5 = tail call noalias ptr @lzma_alloc(i64 noundef 320, ptr noundef %1) #9
  %6 = icmp eq ptr %5, null
  br i1 %6, label %13, label %7

7:                                                ; preds = %4, %2
  %.020 = phi ptr [ %5, %4 ], [ %0, %2 ]
  store i32 0, ptr %.020, align 8
  %8 = getelementptr inbounds nuw i8, ptr %.020, i64 8
  %9 = getelementptr inbounds nuw i8, ptr %.020, i64 144
  %10 = getelementptr inbounds nuw i8, ptr %.020, i64 288
  %11 = getelementptr inbounds nuw i8, ptr %.020, i64 40
  tail call void @llvm.memset.p0.i64(ptr noundef nonnull align 8 dereferenceable(32) %8, i8 0, i64 32, i1 false)
  tail call void @llvm.memset.p0.i64(ptr noundef nonnull align 8 dereferenceable(32) %9, i8 0, i64 32, i1 false)
  tail call void @llvm.memset.p0.i64(ptr noundef nonnull align 8 dereferenceable(28) %10, i8 0, i64 28, i1 false)
  tail call void @lzma_check_init(ptr noundef nonnull %11, i32 noundef 10) #9
  %12 = getelementptr inbounds nuw i8, ptr %.020, i64 176
  tail call void @lzma_check_init(ptr noundef nonnull %12, i32 noundef 10) #9
  br label %13

13:                                               ; preds = %4, %7
  %.0 = phi ptr [ %.020, %7 ], [ null, %4 ]
  ret ptr %.0
}